target datalayout = "e-m:e-p270:32:32-p271:32:32-p272:64:64-i64:64-i128:128-f80:128-n8:16:32:64-S128"
target triple = "x86_64-unknown-linux-gnu"

%"class.std::uniform_int_distribution" = type { %"struct.std::uniform_int_distribution<>::param_type" }
%"struct.std::uniform_int_distribution<>::param_type" = type { i32, i32 }

; Function Attrs: mustprogress nounwind uwtable
define linkonce_odr void @_ZNSt24uniform_int_distributionIiE10param_typeC2Eii(ptr noundef nonnull align 4 dereferenceable(8) %this, i32 noundef %__a, i32 noundef %__b) unnamed_addr #2 comdat align 2 {
entry:
  %this.addr = alloca ptr, align 8
  %__a.addr = alloca i32, align 4
  %__b.addr = alloca i32, align 4
  store ptr %this, ptr %this.addr, align 8
  store i32 %__a, ptr %__a.addr, align 4
  store i32 %__b, ptr %__b.addr, align 4
  %this1 = load ptr, ptr %this.addr, align 8
  %_M_a = getelementptr inbounds %"struct.std::uniform_int_distribution<>::param_type", ptr %this1, i32 0, i32 0
  %0 = load i32, ptr %__a.addr, align 4
  store i32 %0, ptr %_M_a, align 4
  %_M_b = getelementptr inbounds %"struct.std::uniform_int_distribution<>::param_type", ptr %this1, i32 0, i32 1
  %1 = load i32, ptr %__b.addr, align 4
  store i32 %1, ptr %_M_b, align 4
  br label %do.body

do.body:                                          ; preds = %entry
  br label %do.end

do.end:                                           ; preds = %do.body
  ret void
}

; Function Attrs: mustprogress uwtable
define linkonce_odr noundef i32 @_ZNSt24uniform_int_distributionIiEclISt23mersenne_twister_engineImLm32ELm624ELm397ELm31ELm2567483615ELm11ELm4294967295ELm7ELm2636928640ELm15ELm4022730752ELm18ELm1812433253EEEEiRT_(ptr noundef nonnull align 4 dereferenceable(8) %this, ptr noundef nonnull align 8 dereferenceable(5000) %__urng) #0 comdat align 2 {
entry:
  %this.addr = alloca ptr, align 8
  %__urng.addr = alloca ptr, align 8
  store ptr %this, ptr %this.addr, align 8
  store ptr %__urng, ptr %__urng.addr, align 8
  %this1 = load ptr, ptr %this.addr, align 8
  %0 = load ptr, ptr %__urng.addr, align 8
  %_M_param = getelementptr inbounds %"class.std::uniform_int_distribution", ptr %this1, i32 0, i32 0
  %call = call noundef i32 @_ZNSt24uniform_int_distributionIiEclISt23mersenne_twister_engineImLm32ELm624ELm397ELm31ELm2567483615ELm11ELm4294967295ELm7ELm2636928640ELm15ELm4022730752ELm18ELm1812433253EEEEiRT_RKNS0_10param_typeE(ptr noundef nonnull align 4 dereferenceable(8) %this1, ptr noundef nonnull align 8 dereferenceable(5000) %0, ptr noundef nonnull align 4 dereferenceable(8) %_M_param)
  ret i32 %call
}

; Function Attrs: mustprogress uwtable
define linkonce_odr void @_ZNSt24uniform_int_distributionIiEC2Eii(ptr noundef nonnull align 4 dereferenceable(8) %this, i32 noundef %__a, i32 noundef %__b) unnamed_addr #0 comdat align 2 {
entry:
  %this.addr = alloca ptr, align 8
  %__a.addr = alloca i32, align 4
  %__b.addr = alloca i32, align 4
  store ptr %this, ptr %this.addr, align 8
  store i32 %__a, ptr %__a.addr, align 4
  store i32 %__b, ptr %__b.addr, align 4
  %this1 = load ptr, ptr %this.addr, align 8
  %_M_param = getelementptr inbounds %"class.std::uniform_int_distribution", ptr %this1, i32 0, i32 0
  %0 = load i32, ptr %__a.addr, align 4
  %1 = load i32, ptr %__b.addr, align 4
  call void @_ZNSt24uniform_int_distributionIiE10param_typeC2Eii(ptr noundef nonnull align 4 dereferenceable(8) %_M_param, i32 noundef %0, i32 noundef %1)
  ret void
}

; Function Attrs: mustprogress uwtable
define noundef i32 @_ZN8facebook5velox20generator_spec_utils14getRandomIndexERSt23mersenne_twister_engineImLm32ELm624ELm397ELm31ELm2567483615ELm11ELm4294967295ELm7ELm2636928640ELm15ELm4022730752ELm18ELm1812433253EEi(ptr noundef nonnull align 8 dereferenceable(5000) %rng, i32 noundef %maxIndex) #0 {
entry:
  %rng.addr = alloca ptr, align 8
  %maxIndex.addr = alloca i32, align 4
  %indexGenerator = alloca %"class.std::uniform_int_distribution", align 4
  store ptr %rng, ptr %rng.addr, align 8
  store i32 %maxIndex, ptr %maxIndex.addr, align 4
  %0 = load i32, ptr %maxIndex.addr, align 4
  call void @_ZNSt24uniform_int_distributionIiEC2Eii(ptr noundef nonnull align 4 dereferenceable(8) %indexGenerator, i32 noundef 0, i32 noundef %0)
  %1 = load ptr, ptr %rng.addr, align 8
  %call = call noundef i32 @_ZNSt24uniform_int_distributionIiEclISt23mersenne_twister_engineImLm32ELm624ELm397ELm31ELm2567483615ELm11ELm4294967295ELm7ELm2636928640ELm15ELm4022730752ELm18ELm1812433253EEEEiRT_(ptr noundef nonnull align 4 dereferenceable(8) %indexGenerator, ptr noundef nonnull align 8 dereferenceable(5000) %1)
  ret i32 %call
}