; Function Attrs: mustprogress uwtable
define noundef i32 @_ZN8facebook5velox20generator_spec_utils14getRandomIndexERSt23mersenne_twister_engineImLm32ELm624ELm397ELm31ELm2567483615ELm11ELm4294967295ELm7ELm2636928640ELm15ELm4022730752ELm18ELm1812433253EEi(ptr noundef nonnull align 8 dereferenceable(5000) %rng, i32 noundef %maxIndex) local_unnamed_addr #0 {
entry:
  %indexGenerator = alloca %"class.std::uniform_int_distribution", align 4
  store i32 0, ptr %indexGenerator, align 4
  %_M_b.i.i = getelementptr inbounds i8, ptr %indexGenerator, i64 4
  store i32 %maxIndex, ptr %_M_b.i.i, align 4
  %call.i = call noundef i32 @_ZNSt24uniform_int_distributionIiEclISt23mersenne_twister_engineImLm32ELm624ELm397ELm31ELm2567483615ELm11ELm4294967295ELm7ELm2636928640ELm15ELm4022730752ELm18ELm1812433253EEEEiRT_RKNS0_10param_typeE(ptr noundef nonnull align 4 dereferenceable(8) %indexGenerator, ptr noundef nonnull align 8 dereferenceable(5000) %rng, ptr noundef nonnull align 4 dereferenceable(8) %indexGenerator)
  ret i32 %call.i
}